target datalayout = "e-m:e-p270:32:32-p271:32:32-p272:64:64-i64:64-i128:128-f80:128-n8:16:32:64-S128"
target triple = "x86_64-pc-linux-gnu"

%struct.IOStreamStdioData = type { ptr, i8, i8 }

@.str.19 = private unnamed_addr constant [27 x i8] c"Unknown value for 'whence'\00", align 1
@.str.20 = private unnamed_addr constant [31 x i8] c"Couldn't get stream offset: %s\00", align 1
@.str.25 = private unnamed_addr constant [32 x i8] c"Error seeking in datastream: %s\00", align 1

; Function Attrs: nounwind uwtable
define internal i64 @stdio_seek(ptr noundef %0, i64 noundef %1, i32 noundef %2) #0 {
  %4 = alloca i64, align 8
  %5 = alloca ptr, align 8
  %6 = alloca i64, align 8
  %7 = alloca i32, align 4
  %8 = alloca ptr, align 8
  %9 = alloca i32, align 4
  %10 = alloca i32, align 4
  %11 = alloca i8, align 1
  %12 = alloca i64, align 8
  store ptr %0, ptr %5, align 8
  store i64 %1, ptr %6, align 8
  store i32 %2, ptr %7, align 4
  call void @llvm.lifetime.start.p0(i64 8, ptr %8) #11
  %13 = load ptr, ptr %5, align 8
  store ptr %13, ptr %8, align 8
  call void @llvm.lifetime.start.p0(i64 4, ptr %9) #11
  %14 = load i32, ptr %7, align 4
  switch i32 %14, label %18 [
    i32 0, label %15
    i32 1, label %16
    i32 2, label %17
  ]

15:                                               ; preds = %3
  store i32 0, ptr %9, align 4
  br label %20

16:                                               ; preds = %3
  store i32 1, ptr %9, align 4
  br label %20

17:                                               ; preds = %3
  store i32 2, ptr %9, align 4
  br label %20

18:                                               ; preds = %3
  %19 = call zeroext i1 (ptr, ...) @SDL_SetError_REAL(ptr noundef @.str.19)
  store i64 -1, ptr %4, align 8
  store i32 1, ptr %10, align 4
  br label %60

20:                                               ; preds = %17, %16, %15
  call void @llvm.lifetime.start.p0(i64 1, ptr %11) #11
  %21 = load i32, ptr %7, align 4
  %22 = icmp eq i32 %21, 1
  br i1 %22, label %23, label %26

23:                                               ; preds = %20
  %24 = load i64, ptr %6, align 8
  %25 = icmp eq i64 %24, 0
  br label %26

26:                                               ; preds = %23, %20
  %27 = phi i1 [ false, %20 ], [ %25, %23 ]
  %28 = zext i1 %27 to i8
  store i8 %28, ptr %11, align 1
  %29 = load i8, ptr %11, align 1, !range !3, !noundef !4
  %30 = trunc i8 %29 to i1
  br i1 %30, label %39, label %31

31:                                               ; preds = %26
  %32 = load ptr, ptr %8, align 8
  %33 = getelementptr inbounds nuw %struct.IOStreamStdioData, ptr %32, i32 0, i32 0
  %34 = load ptr, ptr %33, align 8
  %35 = load i64, ptr %6, align 8
  %36 = load i32, ptr %9, align 4
  %37 = call i32 @fseeko64(ptr noundef %34, i64 noundef %35, i32 noundef %36)
  %38 = icmp eq i32 %37, 0
  br i1 %38, label %39, label %54

39:                                               ; preds = %31, %26
  call void @llvm.lifetime.start.p0(i64 8, ptr %12) #11
  %40 = load ptr, ptr %8, align 8
  %41 = getelementptr inbounds nuw %struct.IOStreamStdioData, ptr %40, i32 0, i32 0
  %42 = load ptr, ptr %41, align 8
  %43 = call i64 @ftello64(ptr noundef %42)
  store i64 %43, ptr %12, align 8
  %44 = load i64, ptr %12, align 8
  %45 = icmp slt i64 %44, 0
  br i1 %45, label %46, label %51

46:                                               ; preds = %39
  %47 = call ptr @__errno_location() #13
  %48 = load i32, ptr %47, align 4
  %49 = call ptr @strerror(i32 noundef %48) #11
  %50 = call zeroext i1 (ptr, ...) @SDL_SetError_REAL(ptr noundef @.str.20, ptr noundef %49)
  store i64 -1, ptr %4, align 8
  store i32 1, ptr %10, align 4
  br label %53

51:                                               ; preds = %39
  %52 = load i64, ptr %12, align 8
  store i64 %52, ptr %4, align 8
  store i32 1, ptr %10, align 4
  br label %53

53:                                               ; preds = %51, %46
  call void @llvm.lifetime.end.p0(i64 8, ptr %12) #11
  br label %59

54:                                               ; preds = %31
  %55 = call ptr @__errno_location() #13
  %56 = load i32, ptr %55, align 4
  %57 = call ptr @strerror(i32 noundef %56) #11
  %58 = call zeroext i1 (ptr, ...) @SDL_SetError_REAL(ptr noundef @.str.25, ptr noundef %57)
  store i64 -1, ptr %4, align 8
  store i32 1, ptr %10, align 4
  br label %59

59:                                               ; preds = %54, %53
  call void @llvm.lifetime.end.p0(i64 1, ptr %11) #11
  br label %60

60:                                               ; preds = %59, %18
  call void @llvm.lifetime.end.p0(i64 4, ptr %9) #11
  call void @llvm.lifetime.end.p0(i64 8, ptr %8) #11
  %61 = load i64, ptr %4, align 8
  ret i64 %61
}