; Function Attrs: nounwind uwtable
define internal range(i64 -1, -9223372036854775808) i64 @stdio_seek(ptr noundef readonly captures(none) %0, i64 noundef %1, i32 noundef %2) #0 {
  %switch = icmp ult i32 %2, 3
  br i1 %switch, label %6, label %4

4:                                                ; preds = %3
  %5 = tail call zeroext i1 (ptr, ...) @SDL_SetError_REAL(ptr noundef nonnull @.str.19) #18
  br label %28

6:                                                ; preds = %3
  %7 = icmp eq i32 %2, 1
  %8 = icmp eq i64 %1, 0
  %9 = and i1 %8, %7
  br i1 %9, label %14, label %10

10:                                               ; preds = %6
  %11 = load ptr, ptr %0, align 8
  %12 = tail call i32 @fseeko64(ptr noundef %11, i64 noundef %1, i32 noundef %2)
  %13 = icmp eq i32 %12, 0
  br i1 %13, label %14, label %23

14:                                               ; preds = %10, %6
  %15 = load ptr, ptr %0, align 8
  %16 = tail call i64 @ftello64(ptr noundef %15)
  %17 = icmp slt i64 %16, 0
  br i1 %17, label %18, label %28

18:                                               ; preds = %14
  %19 = tail call ptr @__errno_location() #19
  %20 = load i32, ptr %19, align 4
  %21 = tail call ptr @strerror(i32 noundef %20) #18
  %22 = tail call zeroext i1 (ptr, ...) @SDL_SetError_REAL(ptr noundef nonnull @.str.20, ptr noundef %21) #18
  br label %28

23:                                               ; preds = %10
  %24 = tail call ptr @__errno_location() #19
  %25 = load i32, ptr %24, align 4
  %26 = tail call ptr @strerror(i32 noundef %25) #18
  %27 = tail call zeroext i1 (ptr, ...) @SDL_SetError_REAL(ptr noundef nonnull @.str.25, ptr noundef %26) #18
  br label %28

28:                                               ; preds = %23, %14, %18, %4
  %.0 = phi i64 [ -1, %4 ], [ -1, %23 ], [ -1, %18 ], [ %16, %14 ]
  ret i64 %.0
}